target datalayout = "e-m:e-p270:32:32-p271:32:32-p272:64:64-i64:64-i128:128-f80:128-n8:16:32:64-S128"
target triple = "x86_64-pc-linux-gnu"

%struct.XLogRecoveryCtlData = type { i8, i8, %struct.Latch, i64, i64, i32, i64, i32, i64, i64, i32, %struct.ConditionVariable, i8 }
%struct.Latch = type { i32, i32, i8, i32 }
%struct.ConditionVariable = type { i8, %struct.proclist_head }
%struct.proclist_head = type { i32, i32 }

@XLogRecoveryCtl = internal global ptr null, align 8
@.str.6 = private unnamed_addr constant [15 x i8] c"xlogrecovery.c\00", align 1
@__func__.GetRecoveryPauseState = private unnamed_addr constant [22 x i8] c"GetRecoveryPauseState\00", align 1
@LocalHotStandbyActive = internal global i8 0, align 1
@.str.61 = private unnamed_addr constant [71 x i8] c"hot standby is not possible because of insufficient parameter settings\00", align 1
@.str.62 = private unnamed_addr constant [79 x i8] c"%s = %d is a lower setting than on the primary server, where its value was %d.\00", align 1
@__func__.RecoveryRequiresIntParameter = private unnamed_addr constant [29 x i8] c"RecoveryRequiresIntParameter\00", align 1
@.str.63 = private unnamed_addr constant [20 x i8] c"recovery has paused\00", align 1
@.str.64 = private unnamed_addr constant [52 x i8] c"If recovery is unpaused, the server will shut down.\00", align 1
@.str.65 = private unnamed_addr constant [82 x i8] c"You can then restart the server after making the necessary configuration changes.\00", align 1
@.str.66 = private unnamed_addr constant [69 x i8] c"promotion is not possible because of insufficient parameter settings\00", align 1
@.str.67 = private unnamed_addr constant [69 x i8] c"Restart the server after making the necessary configuration changes.\00", align 1
@.str.68 = private unnamed_addr constant [60 x i8] c"recovery aborted because of insufficient parameter settings\00", align 1
@.str.69 = private unnamed_addr constant [77 x i8] c"You can restart the server after making the necessary configuration changes.\00", align 1
@__func__.ConfirmRecoveryPaused = private unnamed_addr constant [22 x i8] c"ConfirmRecoveryPaused\00", align 1

; Function Attrs: inlinehint nounwind uwtable
define internal i32 @tas(ptr noundef %0) #7 {
  %2 = alloca ptr, align 8
  %3 = alloca i8, align 1
  store ptr %0, ptr %2, align 8
  call void @llvm.lifetime.start.p0(i64 1, ptr %3) #14
  store i8 1, ptr %3, align 1
  %4 = load i8, ptr %3, align 1
  %5 = load ptr, ptr %2, align 8
  %6 = call i8 asm sideeffect "\09lock\09\09\09\0A\09xchgb\09$0,$1\09\0A", "=q,=*m,0,*m,~{memory},~{cc},~{dirflag},~{fpsr},~{flags}"(ptr elementtype(i8) %5, i8 %4, ptr elementtype(i8) %5) #14, !srcloc !13
  store i8 %6, ptr %3, align 1
  %7 = load i8, ptr %3, align 1
  %8 = zext i8 %7 to i32
  call void @llvm.lifetime.end.p0(i64 1, ptr %3) #14
  ret i32 %8
}

; Function Attrs: nounwind uwtable
define internal void @ConfirmRecoveryPaused() #0 {
  %1 = load ptr, ptr @XLogRecoveryCtl, align 8
  %2 = getelementptr inbounds nuw %struct.XLogRecoveryCtlData, ptr %1, i32 0, i32 12
  %3 = call i32 @tas(ptr noundef %2)
  %4 = icmp ne i32 %3, 0
  br i1 %4, label %5, label %9

5:                                                ; preds = %0
  %6 = load ptr, ptr @XLogRecoveryCtl, align 8
  %7 = getelementptr inbounds nuw %struct.XLogRecoveryCtlData, ptr %6, i32 0, i32 12
  %8 = call i32 @s_lock(ptr noundef %7, ptr noundef @.str.6, i32 noundef 3116, ptr noundef @__func__.ConfirmRecoveryPaused)
  br label %10

9:                                                ; preds = %0
  br label %10

10:                                               ; preds = %9, %5
  %11 = load ptr, ptr @XLogRecoveryCtl, align 8
  %12 = getelementptr inbounds nuw %struct.XLogRecoveryCtlData, ptr %11, i32 0, i32 10
  %13 = load i32, ptr %12, align 8
  %14 = icmp eq i32 %13, 1
  br i1 %14, label %15, label %18

15:                                               ; preds = %10
  %16 = load ptr, ptr @XLogRecoveryCtl, align 8
  %17 = getelementptr inbounds nuw %struct.XLogRecoveryCtlData, ptr %16, i32 0, i32 10
  store i32 2, ptr %17, align 8
  br label %18

18:                                               ; preds = %15, %10
  br label %19

19:                                               ; preds = %18
  call void asm sideeffect "", "~{memory},~{dirflag},~{fpsr},~{flags}"() #14, !srcloc !27
  %20 = load ptr, ptr @XLogRecoveryCtl, align 8
  %21 = getelementptr inbounds nuw %struct.XLogRecoveryCtlData, ptr %20, i32 0, i32 12
  store i8 0, ptr %21, align 8
  br label %22

22:                                               ; preds = %19
  ret void
}

; Function Attrs: nounwind uwtable
define dso_local i32 @GetRecoveryPauseState() #0 {
  %1 = alloca i32, align 4
  call void @llvm.lifetime.start.p0(i64 4, ptr %1) #14
  %2 = load ptr, ptr @XLogRecoveryCtl, align 8
  %3 = getelementptr inbounds nuw %struct.XLogRecoveryCtlData, ptr %2, i32 0, i32 12
  %4 = call i32 @tas(ptr noundef %3)
  %5 = icmp ne i32 %4, 0
  br i1 %5, label %6, label %10

6:                                                ; preds = %0
  %7 = load ptr, ptr @XLogRecoveryCtl, align 8
  %8 = getelementptr inbounds nuw %struct.XLogRecoveryCtlData, ptr %7, i32 0, i32 12
  %9 = call i32 @s_lock(ptr noundef %8, ptr noundef @.str.6, i32 noundef 3077, ptr noundef @__func__.GetRecoveryPauseState)
  br label %11

10:                                               ; preds = %0
  br label %11

11:                                               ; preds = %10, %6
  %12 = load ptr, ptr @XLogRecoveryCtl, align 8
  %13 = getelementptr inbounds nuw %struct.XLogRecoveryCtlData, ptr %12, i32 0, i32 10
  %14 = load i32, ptr %13, align 8
  store i32 %14, ptr %1, align 4
  br label %15

15:                                               ; preds = %11
  call void asm sideeffect "", "~{memory},~{dirflag},~{fpsr},~{flags}"() #14, !srcloc !20
  %16 = load ptr, ptr @XLogRecoveryCtl, align 8
  %17 = getelementptr inbounds nuw %struct.XLogRecoveryCtlData, ptr %16, i32 0, i32 12
  store i8 0, ptr %17, align 8
  br label %18

18:                                               ; preds = %15
  br label %19

19:                                               ; preds = %18
  %20 = load i32, ptr %1, align 4
  call void @llvm.lifetime.end.p0(i64 4, ptr %1) #14
  ret i32 %20
}

; Function Attrs: nounwind uwtable
define internal zeroext i1 @HotStandbyActiveInReplay() #0 {
  %1 = load i8, ptr @LocalHotStandbyActive, align 1, !range !4, !noundef !5
  %2 = trunc i8 %1 to i1
  ret i1 %2
}

; Function Attrs: nounwind uwtable
define dso_local void @RecoveryRequiresIntParameter(ptr noundef %0, i32 noundef %1, i32 noundef %2) #0 {
  %4 = alloca ptr, align 8
  %5 = alloca i32, align 4
  %6 = alloca i32, align 4
  %7 = alloca i8, align 1
  store ptr %0, ptr %4, align 8
  store i32 %1, ptr %5, align 4
  store i32 %2, ptr %6, align 4
  %8 = load i32, ptr %5, align 4
  %9 = load i32, ptr %6, align 4
  %10 = icmp slt i32 %8, %9
  br i1 %10, label %11, label %89

11:                                               ; preds = %3
  %12 = call zeroext i1 @HotStandbyActiveInReplay()
  br i1 %12, label %13, label %73

13:                                               ; preds = %11
  call void @llvm.lifetime.start.p0(i64 1, ptr %7) #14
  store i8 0, ptr %7, align 1
  br label %14

14:                                               ; preds = %13
  br i1 false, label %15, label %17

15:                                               ; preds = %14
  %16 = call zeroext i1 @errstart_cold(i32 noundef 19, ptr noundef null) #15
  br i1 %16, label %19, label %26

17:                                               ; preds = %14
  %18 = call zeroext i1 @errstart(i32 noundef 19, ptr noundef null)
  br i1 %18, label %19, label %26

19:                                               ; preds = %17, %15
  %20 = call i32 @errcode(i32 noundef 50856066)
  %21 = call i32 (ptr, ...) @errmsg(ptr noundef @.str.61)
  %22 = load ptr, ptr %4, align 8
  %23 = load i32, ptr %5, align 4
  %24 = load i32, ptr %6, align 4
  %25 = call i32 (ptr, ...) @errdetail(ptr noundef @.str.62, ptr noundef %22, i32 noundef %23, i32 noundef %24)
  call void @errfinish(ptr noundef @.str.6, i32 noundef 4685, ptr noundef @__func__.RecoveryRequiresIntParameter)
  br label %26

26:                                               ; preds = %19, %17, %15
  br label %27

27:                                               ; preds = %26
  br label %28

28:                                               ; preds = %27
  call void @SetRecoveryPause(i1 noundef zeroext true)
  br label %29

29:                                               ; preds = %28
  br i1 false, label %30, label %32

30:                                               ; preds = %29
  %31 = call zeroext i1 @errstart_cold(i32 noundef 15, ptr noundef null) #15
  br i1 %31, label %34, label %38

32:                                               ; preds = %29
  %33 = call zeroext i1 @errstart(i32 noundef 15, ptr noundef null)
  br i1 %33, label %34, label %38

34:                                               ; preds = %32, %30
  %35 = call i32 (ptr, ...) @errmsg(ptr noundef @.str.63)
  %36 = call i32 (ptr, ...) @errdetail(ptr noundef @.str.64)
  %37 = call i32 (ptr, ...) @errhint(ptr noundef @.str.65)
  call void @errfinish(ptr noundef @.str.6, i32 noundef 4692, ptr noundef @__func__.RecoveryRequiresIntParameter)
  br label %38

38:                                               ; preds = %34, %32, %30
  br label %39

39:                                               ; preds = %38
  br label %40

40:                                               ; preds = %39
  br label %41

41:                                               ; preds = %67, %40
  %42 = call i32 @GetRecoveryPauseState()
  %43 = icmp ne i32 %42, 0
  br i1 %43, label %44, label %71

44:                                               ; preds = %41
  call void @HandleStartupProcInterrupts()
  %45 = call zeroext i1 @CheckForStandbyTrigger()
  br i1 %45, label %46, label %67

46:                                               ; preds = %44
  %47 = load i8, ptr %7, align 1, !range !4, !noundef !5
  %48 = trunc i8 %47 to i1
  br i1 %48, label %66, label %49

49:                                               ; preds = %46
  br label %50

50:                                               ; preds = %49
  br i1 false, label %51, label %53

51:                                               ; preds = %50
  %52 = call zeroext i1 @errstart_cold(i32 noundef 19, ptr noundef null) #15
  br i1 %52, label %55, label %63

53:                                               ; preds = %50
  %54 = call zeroext i1 @errstart(i32 noundef 19, ptr noundef null)
  br i1 %54, label %55, label %63

55:                                               ; preds = %53, %51
  %56 = call i32 @errcode(i32 noundef 50856066)
  %57 = call i32 (ptr, ...) @errmsg(ptr noundef @.str.66)
  %58 = load ptr, ptr %4, align 8
  %59 = load i32, ptr %5, align 4
  %60 = load i32, ptr %6, align 4
  %61 = call i32 (ptr, ...) @errdetail(ptr noundef @.str.62, ptr noundef %58, i32 noundef %59, i32 noundef %60)
  %62 = call i32 (ptr, ...) @errhint(ptr noundef @.str.67)
  call void @errfinish(ptr noundef @.str.6, i32 noundef 4713, ptr noundef @__func__.RecoveryRequiresIntParameter)
  br label %63

63:                                               ; preds = %55, %53, %51
  br label %64

64:                                               ; preds = %63
  br label %65

65:                                               ; preds = %64
  br label %66

66:                                               ; preds = %65, %46
  store i8 1, ptr %7, align 1
  br label %67

67:                                               ; preds = %66, %44
  call void @ConfirmRecoveryPaused()
  %68 = load ptr, ptr @XLogRecoveryCtl, align 8
  %69 = getelementptr inbounds nuw %struct.XLogRecoveryCtlData, ptr %68, i32 0, i32 11
  %70 = call zeroext i1 @ConditionVariableTimedSleep(ptr noundef %69, i64 noundef 1000, i32 noundef 134217775)
  br label %41, !llvm.loop !26

71:                                               ; preds = %41
  %72 = call zeroext i1 @ConditionVariableCancelSleep()
  call void @llvm.lifetime.end.p0(i64 1, ptr %7) #14
  br label %73

73:                                               ; preds = %71, %11
  br label %74

74:                                               ; preds = %73
  br i1 true, label %75, label %77

75:                                               ; preds = %74
  %76 = call zeroext i1 @errstart_cold(i32 noundef 22, ptr noundef null) #15
  br i1 %76, label %79, label %87

77:                                               ; preds = %74
  %78 = call zeroext i1 @errstart(i32 noundef 22, ptr noundef null)
  br i1 %78, label %79, label %87

79:                                               ; preds = %77, %75
  %80 = call i32 @errcode(i32 noundef 50856066)
  %81 = call i32 (ptr, ...) @errmsg(ptr noundef @.str.68)
  %82 = load ptr, ptr %4, align 8
  %83 = load i32, ptr %5, align 4
  %84 = load i32, ptr %6, align 4
  %85 = call i32 (ptr, ...) @errdetail(ptr noundef @.str.62, ptr noundef %82, i32 noundef %83, i32 noundef %84)
  %86 = call i32 (ptr, ...) @errhint(ptr noundef @.str.69)
  call void @errfinish(ptr noundef @.str.6, i32 noundef 4743, ptr noundef @__func__.RecoveryRequiresIntParameter)
  br label %87

87:                                               ; preds = %79, %77, %75
  unreachable

88:                                               ; No predecessors!
  br label %89

89:                                               ; preds = %88, %3
  ret void
}