; Function Attrs: nounwind uwtable
define dso_local void @RecoveryRequiresIntParameter(ptr noundef %0, i32 noundef %1, i32 noundef %2) local_unnamed_addr #2 {
  %4 = icmp slt i32 %1, %2
  br i1 %4, label %5, label %68

5:                                                ; preds = %3
  %6 = load i8, ptr @LocalHotStandbyActive, align 1, !range !4, !noundef !5
  %7 = trunc nuw i8 %6 to i1
  br i1 %7, label %8, label %62

8:                                                ; preds = %5
  %9 = tail call zeroext i1 @errstart(i32 noundef 19, ptr noundef null) #23
  br i1 %9, label %10, label %14

10:                                               ; preds = %8
  %11 = tail call i32 @errcode(i32 noundef 50856066) #23
  %12 = tail call i32 (ptr, ...) @errmsg(ptr noundef nonnull @.str.61) #23
  %13 = tail call i32 (ptr, ...) @errdetail(ptr noundef nonnull @.str.62, ptr noundef %0, i32 noundef %1, i32 noundef %2) #23
  tail call void @errfinish(ptr noundef nonnull @.str.6, i32 noundef 4685, ptr noundef nonnull @__func__.RecoveryRequiresIntParameter) #23
  br label %14

14:                                               ; preds = %10, %8
  tail call void @SetRecoveryPause(i1 noundef zeroext true)
  %15 = tail call zeroext i1 @errstart(i32 noundef 15, ptr noundef null) #23
  br i1 %15, label %16, label %.preheader

16:                                               ; preds = %14
  %17 = tail call i32 (ptr, ...) @errmsg(ptr noundef nonnull @.str.63) #23
  %18 = tail call i32 (ptr, ...) @errdetail(ptr noundef nonnull @.str.64) #23
  %19 = tail call i32 (ptr, ...) @errhint(ptr noundef nonnull @.str.65) #23
  tail call void @errfinish(ptr noundef nonnull @.str.6, i32 noundef 4692, ptr noundef nonnull @__func__.RecoveryRequiresIntParameter) #23
  br label %.preheader

.preheader:                                       ; preds = %16, %14
  br label %20

20:                                               ; preds = %.preheader, %ConfirmRecoveryPaused.exit
  %.0 = phi i1 [ %.1, %ConfirmRecoveryPaused.exit ], [ false, %.preheader ]
  %21 = load ptr, ptr @XLogRecoveryCtl, align 8
  %22 = getelementptr inbounds nuw i8, ptr %21, i64 96
  %23 = tail call i8 asm sideeffect "\09lock\09\09\09\0A\09xchgb\09$0,$1\09\0A", "=q,=*m,0,*m,~{memory},~{cc},~{dirflag},~{fpsr},~{flags}"(ptr nonnull elementtype(i8) %22, i8 1, ptr nonnull elementtype(i8) %22) #23, !srcloc !10
  %.not.i = icmp eq i8 %23, 0
  br i1 %.not.i, label %GetRecoveryPauseState.exit, label %24

24:                                               ; preds = %20
  %25 = load ptr, ptr @XLogRecoveryCtl, align 8
  %26 = getelementptr inbounds nuw i8, ptr %25, i64 96
  %27 = tail call i32 @s_lock(ptr noundef nonnull %26, ptr noundef nonnull @.str.6, i32 noundef 3077, ptr noundef nonnull @__func__.GetRecoveryPauseState) #23
  br label %GetRecoveryPauseState.exit

GetRecoveryPauseState.exit:                       ; preds = %20, %24
  %28 = load ptr, ptr @XLogRecoveryCtl, align 8
  %29 = getelementptr inbounds nuw i8, ptr %28, i64 80
  %30 = load i32, ptr %29, align 8
  tail call void asm sideeffect "", "~{memory},~{dirflag},~{fpsr},~{flags}"() #23, !srcloc !29
  %31 = load ptr, ptr @XLogRecoveryCtl, align 8
  %32 = getelementptr inbounds nuw i8, ptr %31, i64 96
  store i8 0, ptr %32, align 8
  %.not = icmp eq i32 %30, 0
  br i1 %.not, label %60, label %33

33:                                               ; preds = %GetRecoveryPauseState.exit
  tail call void @HandleStartupProcInterrupts() #23
  %34 = tail call fastcc zeroext i1 @CheckForStandbyTrigger()
  %.not14 = xor i1 %34, true
  %brmerge = select i1 %.not14, i1 true, i1 %.0
  %.0.mux = select i1 %34, i1 true, i1 %.0
  br i1 %brmerge, label %42, label %35

35:                                               ; preds = %33
  %36 = tail call zeroext i1 @errstart(i32 noundef 19, ptr noundef null) #23
  br i1 %36, label %37, label %42

37:                                               ; preds = %35
  %38 = tail call i32 @errcode(i32 noundef 50856066) #23
  %39 = tail call i32 (ptr, ...) @errmsg(ptr noundef nonnull @.str.66) #23
  %40 = tail call i32 (ptr, ...) @errdetail(ptr noundef nonnull @.str.62, ptr noundef %0, i32 noundef %1, i32 noundef %2) #23
  %41 = tail call i32 (ptr, ...) @errhint(ptr noundef nonnull @.str.67) #23
  tail call void @errfinish(ptr noundef nonnull @.str.6, i32 noundef 4713, ptr noundef nonnull @__func__.RecoveryRequiresIntParameter) #23
  br label %42

42:                                               ; preds = %33, %37, %35
  %.1 = phi i1 [ %.0.mux, %33 ], [ true, %35 ], [ true, %37 ]
  %43 = load ptr, ptr @XLogRecoveryCtl, align 8
  %44 = getelementptr inbounds nuw i8, ptr %43, i64 96
  %45 = tail call i8 asm sideeffect "\09lock\09\09\09\0A\09xchgb\09$0,$1\09\0A", "=q,=*m,0,*m,~{memory},~{cc},~{dirflag},~{fpsr},~{flags}"(ptr nonnull elementtype(i8) %44, i8 1, ptr nonnull elementtype(i8) %44) #23, !srcloc !10
  %.not.i13 = icmp eq i8 %45, 0
  br i1 %.not.i13, label %50, label %46

46:                                               ; preds = %42
  %47 = load ptr, ptr @XLogRecoveryCtl, align 8
  %48 = getelementptr inbounds nuw i8, ptr %47, i64 96
  %49 = tail call i32 @s_lock(ptr noundef nonnull %48, ptr noundef nonnull @.str.6, i32 noundef 3116, ptr noundef nonnull @__func__.ConfirmRecoveryPaused) #23
  br label %50

50:                                               ; preds = %46, %42
  %51 = load ptr, ptr @XLogRecoveryCtl, align 8
  %52 = getelementptr inbounds nuw i8, ptr %51, i64 80
  %53 = load i32, ptr %52, align 8
  %54 = icmp eq i32 %53, 1
  br i1 %54, label %55, label %ConfirmRecoveryPaused.exit

55:                                               ; preds = %50
  store i32 2, ptr %52, align 8
  br label %ConfirmRecoveryPaused.exit

ConfirmRecoveryPaused.exit:                       ; preds = %50, %55
  tail call void asm sideeffect "", "~{memory},~{dirflag},~{fpsr},~{flags}"() #23, !srcloc !30
  %56 = load ptr, ptr @XLogRecoveryCtl, align 8
  %57 = getelementptr inbounds nuw i8, ptr %56, i64 96
  store i8 0, ptr %57, align 8
  %58 = getelementptr inbounds nuw i8, ptr %56, i64 84
  %59 = tail call zeroext i1 @ConditionVariableTimedSleep(ptr noundef nonnull %58, i64 noundef 1000, i32 noundef 134217775) #23
  br label %20, !llvm.loop !40

60:                                               ; preds = %GetRecoveryPauseState.exit
  %61 = tail call zeroext i1 @ConditionVariableCancelSleep() #23
  br label %62

62:                                               ; preds = %60, %5
  %63 = tail call zeroext i1 @errstart_cold(i32 noundef 22, ptr noundef null) #24
  tail call void @llvm.assume(i1 %63)
  %64 = tail call i32 @errcode(i32 noundef 50856066) #23
  %65 = tail call i32 (ptr, ...) @errmsg(ptr noundef nonnull @.str.68) #23
  %66 = tail call i32 (ptr, ...) @errdetail(ptr noundef nonnull @.str.62, ptr noundef %0, i32 noundef %1, i32 noundef %2) #23
  %67 = tail call i32 (ptr, ...) @errhint(ptr noundef nonnull @.str.69) #23
  tail call void @errfinish(ptr noundef nonnull @.str.6, i32 noundef 4743, ptr noundef nonnull @__func__.RecoveryRequiresIntParameter) #23
  unreachable

68:                                               ; preds = %3
  ret void
}